target datalayout = "e-m:e-p270:32:32-p271:32:32-p272:64:64-i64:64-i128:128-f80:128-n8:16:32:64-S128"
target triple = "x86_64-pc-linux-gnu"

%struct.progress = type { ptr, ptr, i64, i64, i32, i32, i32, ptr, i64, %struct.strbuf, i32, i32 }
%struct.strbuf = type { i64, i64, ptr }
%struct.throughput = type { i64, i64, i64, i32, i32, [8 x i32], [8 x i32], i32, %struct.strbuf }

@progress_update = internal global i32 0, align 4
@.str.4 = private unnamed_addr constant [11 x i8] c"./strbuf.h\00", align 1
@.str.5 = private unnamed_addr constant [30 x i8] c"strbuf_setlen() beyond buffer\00", align 1
@strbuf_slopbuf = external global [0 x i8], align 1
@.str.6 = private unnamed_addr constant [1 x i8] zeroinitializer, align 1
@.str.7 = private unnamed_addr constant [18 x i8] c"%3u%% (%lu/%lu)%s\00", align 1
@.str.8 = private unnamed_addr constant [6 x i8] c"%lu%s\00", align 1
@stderr = external global ptr, align 8
@.str.9 = private unnamed_addr constant [2 x i8] c"\0D\00", align 1
@.str.10 = private unnamed_addr constant [8 x i8] c"  %s%*s\00", align 1
@.str.11 = private unnamed_addr constant [14 x i8] c"%s:%*s\0A  %s%s\00", align 1
@.str.12 = private unnamed_addr constant [10 x i8] c"%s: %s%*s\00", align 1

; Function Attrs: nounwind uwtable
define internal i32 @is_foreground_fd(i32 noundef %0) #0 {
  %2 = alloca i32, align 4
  %3 = alloca i32, align 4
  store i32 %0, ptr %2, align 4, !tbaa !4
  call void @llvm.lifetime.start.p0(i64 4, ptr %3) #9
  %4 = load i32, ptr %2, align 4, !tbaa !4
  %5 = call i32 @tcgetpgrp(i32 noundef %4) #9
  store i32 %5, ptr %3, align 4, !tbaa !4
  %6 = load i32, ptr %3, align 4, !tbaa !4
  %7 = icmp slt i32 %6, 0
  br i1 %7, label %12, label %8

8:                                                ; preds = %1
  %9 = load i32, ptr %3, align 4, !tbaa !4
  %10 = call i32 @getpgid(i32 noundef 0) #9
  %11 = icmp eq i32 %9, %10
  br label %12

12:                                               ; preds = %8, %1
  %13 = phi i1 [ true, %1 ], [ %11, %8 ]
  %14 = zext i1 %13 to i32
  call void @llvm.lifetime.end.p0(i64 4, ptr %3) #9
  ret i32 %14
}

; Function Attrs: inlinehint nounwind uwtable
define internal void @strbuf_setlen(ptr noundef %0, i64 noundef %1) #5 {
  %3 = alloca ptr, align 8
  %4 = alloca i64, align 8
  store ptr %0, ptr %3, align 8, !tbaa !29
  store i64 %1, ptr %4, align 8, !tbaa !11
  %5 = load i64, ptr %4, align 8, !tbaa !11
  %6 = load ptr, ptr %3, align 8, !tbaa !29
  %7 = getelementptr inbounds nuw %struct.strbuf, ptr %6, i32 0, i32 0
  %8 = load i64, ptr %7, align 8, !tbaa !48
  %9 = icmp ne i64 %8, 0
  br i1 %9, label %10, label %15

10:                                               ; preds = %2
  %11 = load ptr, ptr %3, align 8, !tbaa !29
  %12 = getelementptr inbounds nuw %struct.strbuf, ptr %11, i32 0, i32 0
  %13 = load i64, ptr %12, align 8, !tbaa !48
  %14 = sub i64 %13, 1
  br label %16

15:                                               ; preds = %2
  br label %16

16:                                               ; preds = %15, %10
  %17 = phi i64 [ %14, %10 ], [ 0, %15 ]
  %18 = icmp ugt i64 %5, %17
  br i1 %18, label %19, label %20

19:                                               ; preds = %16
  call void (ptr, i32, ptr, ...) @BUG_fl(ptr noundef @.str.4, i32 noundef 167, ptr noundef @.str.5) #10
  unreachable

20:                                               ; preds = %16
  %21 = load i64, ptr %4, align 8, !tbaa !11
  %22 = load ptr, ptr %3, align 8, !tbaa !29
  %23 = getelementptr inbounds nuw %struct.strbuf, ptr %22, i32 0, i32 1
  store i64 %21, ptr %23, align 8, !tbaa !32
  %24 = load ptr, ptr %3, align 8, !tbaa !29
  %25 = getelementptr inbounds nuw %struct.strbuf, ptr %24, i32 0, i32 2
  %26 = load ptr, ptr %25, align 8, !tbaa !41
  %27 = icmp ne ptr %26, @strbuf_slopbuf
  br i1 %27, label %28, label %34

28:                                               ; preds = %20
  %29 = load ptr, ptr %3, align 8, !tbaa !29
  %30 = getelementptr inbounds nuw %struct.strbuf, ptr %29, i32 0, i32 2
  %31 = load ptr, ptr %30, align 8, !tbaa !41
  %32 = load i64, ptr %4, align 8, !tbaa !11
  %33 = getelementptr inbounds nuw i8, ptr %31, i64 %32
  store i8 0, ptr %33, align 1, !tbaa !49
  br label %35

34:                                               ; preds = %20
  br label %35

35:                                               ; preds = %34, %28
  ret void
}

; Function Attrs: nounwind uwtable
define internal void @display(ptr noundef %0, i64 noundef %1, ptr noundef %2) #0 {
  %4 = alloca ptr, align 8
  %5 = alloca i64, align 8
  %6 = alloca ptr, align 8
  %7 = alloca ptr, align 8
  %8 = alloca ptr, align 8
  %9 = alloca i32, align 4
  %10 = alloca i32, align 4
  %11 = alloca i32, align 4
  %12 = alloca i32, align 4
  %13 = alloca ptr, align 8
  %14 = alloca i64, align 8
  %15 = alloca i64, align 8
  %16 = alloca i32, align 4
  store ptr %0, ptr %4, align 8, !tbaa !8
  store i64 %1, ptr %5, align 8, !tbaa !11
  store ptr %2, ptr %6, align 8, !tbaa !31
  call void @llvm.lifetime.start.p0(i64 8, ptr %7) #9
  call void @llvm.lifetime.start.p0(i64 8, ptr %8) #9
  %17 = load ptr, ptr %4, align 8, !tbaa !8
  %18 = getelementptr inbounds nuw %struct.progress, ptr %17, i32 0, i32 9
  store ptr %18, ptr %8, align 8, !tbaa !29
  call void @llvm.lifetime.start.p0(i64 4, ptr %9) #9
  store i32 0, ptr %9, align 4, !tbaa !4
  call void @llvm.lifetime.start.p0(i64 4, ptr %10) #9
  %19 = load ptr, ptr %8, align 8, !tbaa !29
  %20 = getelementptr inbounds nuw %struct.strbuf, ptr %19, i32 0, i32 1
  %21 = load i64, ptr %20, align 8, !tbaa !32
  %22 = trunc i64 %21 to i32
  store i32 %22, ptr %10, align 4, !tbaa !4
  %23 = load ptr, ptr %4, align 8, !tbaa !8
  %24 = getelementptr inbounds nuw %struct.progress, ptr %23, i32 0, i32 5
  %25 = load i32, ptr %24, align 4, !tbaa !33
  %26 = icmp ne i32 %25, 0
  br i1 %26, label %27, label %37

27:                                               ; preds = %3
  %28 = load volatile i32, ptr @progress_update, align 4, !tbaa !4
  %29 = icmp ne i32 %28, 0
  br i1 %29, label %30, label %36

30:                                               ; preds = %27
  %31 = load ptr, ptr %4, align 8, !tbaa !8
  %32 = getelementptr inbounds nuw %struct.progress, ptr %31, i32 0, i32 5
  %33 = load i32, ptr %32, align 4, !tbaa !33
  %34 = add i32 %33, -1
  store i32 %34, ptr %32, align 4, !tbaa !33
  %35 = icmp ne i32 %34, 0
  br i1 %35, label %36, label %37

36:                                               ; preds = %30, %27
  store i32 1, ptr %11, align 4
  br label %213

37:                                               ; preds = %30, %3
  %38 = load i64, ptr %5, align 8, !tbaa !11
  %39 = load ptr, ptr %4, align 8, !tbaa !8
  %40 = getelementptr inbounds nuw %struct.progress, ptr %39, i32 0, i32 2
  store i64 %38, ptr %40, align 8, !tbaa !27
  %41 = load ptr, ptr %4, align 8, !tbaa !8
  %42 = getelementptr inbounds nuw %struct.progress, ptr %41, i32 0, i32 7
  %43 = load ptr, ptr %42, align 8, !tbaa !13
  %44 = icmp ne ptr %43, null
  br i1 %44, label %45, label %52

45:                                               ; preds = %37
  %46 = load ptr, ptr %4, align 8, !tbaa !8
  %47 = getelementptr inbounds nuw %struct.progress, ptr %46, i32 0, i32 7
  %48 = load ptr, ptr %47, align 8, !tbaa !13
  %49 = getelementptr inbounds nuw %struct.throughput, ptr %48, i32 0, i32 8
  %50 = getelementptr inbounds nuw %struct.strbuf, ptr %49, i32 0, i32 2
  %51 = load ptr, ptr %50, align 8, !tbaa !34
  br label %53

52:                                               ; preds = %37
  br label %53

53:                                               ; preds = %52, %45
  %54 = phi ptr [ %51, %45 ], [ @.str.6, %52 ]
  store ptr %54, ptr %7, align 8, !tbaa !31
  %55 = load ptr, ptr %4, align 8, !tbaa !8
  %56 = getelementptr inbounds nuw %struct.progress, ptr %55, i32 0, i32 3
  %57 = load i64, ptr %56, align 8, !tbaa !35
  %58 = icmp ne i64 %57, 0
  br i1 %58, label %59, label %88

59:                                               ; preds = %53
  call void @llvm.lifetime.start.p0(i64 4, ptr %12) #9
  %60 = load i64, ptr %5, align 8, !tbaa !11
  %61 = mul i64 %60, 100
  %62 = load ptr, ptr %4, align 8, !tbaa !8
  %63 = getelementptr inbounds nuw %struct.progress, ptr %62, i32 0, i32 3
  %64 = load i64, ptr %63, align 8, !tbaa !35
  %65 = udiv i64 %61, %64
  %66 = trunc i64 %65 to i32
  store i32 %66, ptr %12, align 4, !tbaa !4
  %67 = load i32, ptr %12, align 4, !tbaa !4
  %68 = load ptr, ptr %4, align 8, !tbaa !8
  %69 = getelementptr inbounds nuw %struct.progress, ptr %68, i32 0, i32 4
  %70 = load i32, ptr %69, align 8, !tbaa !36
  %71 = icmp ne i32 %67, %70
  br i1 %71, label %75, label %72

72:                                               ; preds = %59
  %73 = load volatile i32, ptr @progress_update, align 4, !tbaa !4
  %74 = icmp ne i32 %73, 0
  br i1 %74, label %75, label %87

75:                                               ; preds = %72, %59
  %76 = load i32, ptr %12, align 4, !tbaa !4
  %77 = load ptr, ptr %4, align 8, !tbaa !8
  %78 = getelementptr inbounds nuw %struct.progress, ptr %77, i32 0, i32 4
  store i32 %76, ptr %78, align 8, !tbaa !36
  %79 = load ptr, ptr %8, align 8, !tbaa !29
  call void @strbuf_setlen(ptr noundef %79, i64 noundef 0)
  %80 = load ptr, ptr %8, align 8, !tbaa !29
  %81 = load i32, ptr %12, align 4, !tbaa !4
  %82 = load i64, ptr %5, align 8, !tbaa !11
  %83 = load ptr, ptr %4, align 8, !tbaa !8
  %84 = getelementptr inbounds nuw %struct.progress, ptr %83, i32 0, i32 3
  %85 = load i64, ptr %84, align 8, !tbaa !35
  %86 = load ptr, ptr %7, align 8, !tbaa !31
  call void (ptr, ptr, ...) @strbuf_addf(ptr noundef %80, ptr noundef @.str.7, i32 noundef %81, i64 noundef %82, i64 noundef %85, ptr noundef %86)
  store i32 1, ptr %9, align 4, !tbaa !4
  br label %87

87:                                               ; preds = %75, %72
  call void @llvm.lifetime.end.p0(i64 4, ptr %12) #9
  br label %97

88:                                               ; preds = %53
  %89 = load volatile i32, ptr @progress_update, align 4, !tbaa !4
  %90 = icmp ne i32 %89, 0
  br i1 %90, label %91, label %96

91:                                               ; preds = %88
  %92 = load ptr, ptr %8, align 8, !tbaa !29
  call void @strbuf_setlen(ptr noundef %92, i64 noundef 0)
  %93 = load ptr, ptr %8, align 8, !tbaa !29
  %94 = load i64, ptr %5, align 8, !tbaa !11
  %95 = load ptr, ptr %7, align 8, !tbaa !31
  call void (ptr, ptr, ...) @strbuf_addf(ptr noundef %93, ptr noundef @.str.8, i64 noundef %94, ptr noundef %95)
  store i32 1, ptr %9, align 4, !tbaa !4
  br label %96

96:                                               ; preds = %91, %88
  br label %97

97:                                               ; preds = %96, %87
  %98 = load i32, ptr %9, align 4, !tbaa !4
  %99 = icmp ne i32 %98, 0
  br i1 %99, label %100, label %212

100:                                              ; preds = %97
  %101 = load ptr, ptr @stderr, align 8, !tbaa !37
  %102 = call i32 @fileno(ptr noundef %101) #9
  %103 = call i32 @is_foreground_fd(i32 noundef %102)
  %104 = icmp ne i32 %103, 0
  br i1 %104, label %108, label %105

105:                                              ; preds = %100
  %106 = load ptr, ptr %6, align 8, !tbaa !31
  %107 = icmp ne ptr %106, null
  br i1 %107, label %108, label %211

108:                                              ; preds = %105, %100
  call void @llvm.lifetime.start.p0(i64 8, ptr %13) #9
  %109 = load ptr, ptr %6, align 8, !tbaa !31
  %110 = icmp ne ptr %109, null
  br i1 %110, label %111, label %113

111:                                              ; preds = %108
  %112 = load ptr, ptr %6, align 8, !tbaa !31
  br label %114

113:                                              ; preds = %108
  br label %114

114:                                              ; preds = %113, %111
  %115 = phi ptr [ %112, %111 ], [ @.str.9, %113 ]
  store ptr %115, ptr %13, align 8, !tbaa !31
  call void @llvm.lifetime.start.p0(i64 8, ptr %14) #9
  %116 = load ptr, ptr %8, align 8, !tbaa !29
  %117 = getelementptr inbounds nuw %struct.strbuf, ptr %116, i32 0, i32 1
  %118 = load i64, ptr %117, align 8, !tbaa !32
  %119 = load i32, ptr %10, align 4, !tbaa !4
  %120 = sext i32 %119 to i64
  %121 = icmp ult i64 %118, %120
  br i1 %121, label %122, label %130

122:                                              ; preds = %114
  %123 = load i32, ptr %10, align 4, !tbaa !4
  %124 = sext i32 %123 to i64
  %125 = load ptr, ptr %8, align 8, !tbaa !29
  %126 = getelementptr inbounds nuw %struct.strbuf, ptr %125, i32 0, i32 1
  %127 = load i64, ptr %126, align 8, !tbaa !32
  %128 = sub i64 %124, %127
  %129 = add i64 %128, 1
  br label %131

130:                                              ; preds = %114
  br label %131

131:                                              ; preds = %130, %122
  %132 = phi i64 [ %129, %122 ], [ 0, %130 ]
  store i64 %132, ptr %14, align 8, !tbaa !11
  call void @llvm.lifetime.start.p0(i64 8, ptr %15) #9
  %133 = load ptr, ptr %4, align 8, !tbaa !8
  %134 = getelementptr inbounds nuw %struct.progress, ptr %133, i32 0, i32 10
  %135 = load i32, ptr %134, align 8, !tbaa !39
  %136 = sext i32 %135 to i64
  %137 = load ptr, ptr %8, align 8, !tbaa !29
  %138 = getelementptr inbounds nuw %struct.strbuf, ptr %137, i32 0, i32 1
  %139 = load i64, ptr %138, align 8, !tbaa !32
  %140 = add i64 %136, %139
  %141 = add i64 %140, 2
  store i64 %141, ptr %15, align 8, !tbaa !11
  call void @llvm.lifetime.start.p0(i64 4, ptr %16) #9
  %142 = call i32 @term_columns()
  store i32 %142, ptr %16, align 4, !tbaa !4
  %143 = load ptr, ptr %4, align 8, !tbaa !8
  %144 = getelementptr inbounds nuw %struct.progress, ptr %143, i32 0, i32 11
  %145 = load i32, ptr %144, align 4, !tbaa !40
  %146 = icmp ne i32 %145, 0
  br i1 %146, label %147, label %156

147:                                              ; preds = %131
  %148 = load ptr, ptr @stderr, align 8, !tbaa !37
  %149 = load ptr, ptr %8, align 8, !tbaa !29
  %150 = getelementptr inbounds nuw %struct.strbuf, ptr %149, i32 0, i32 2
  %151 = load ptr, ptr %150, align 8, !tbaa !41
  %152 = load i64, ptr %14, align 8, !tbaa !11
  %153 = trunc i64 %152 to i32
  %154 = load ptr, ptr %13, align 8, !tbaa !31
  %155 = call i32 (ptr, ptr, ...) @fprintf(ptr noundef %148, ptr noundef @.str.10, ptr noundef %151, i32 noundef %153, ptr noundef %154) #9
  br label %208

156:                                              ; preds = %131
  %157 = load ptr, ptr %6, align 8, !tbaa !31
  %158 = icmp ne ptr %157, null
  br i1 %158, label %195, label %159

159:                                              ; preds = %156
  %160 = load i32, ptr %16, align 4, !tbaa !4
  %161 = sext i32 %160 to i64
  %162 = load i64, ptr %15, align 8, !tbaa !11
  %163 = icmp ult i64 %161, %162
  br i1 %163, label %164, label %195

164:                                              ; preds = %159
  %165 = load ptr, ptr %4, align 8, !tbaa !8
  %166 = getelementptr inbounds nuw %struct.progress, ptr %165, i32 0, i32 10
  %167 = load i32, ptr %166, align 8, !tbaa !39
  %168 = add nsw i32 %167, 1
  %169 = load i32, ptr %16, align 4, !tbaa !4
  %170 = icmp slt i32 %168, %169
  br i1 %170, label %171, label %178

171:                                              ; preds = %164
  %172 = load i32, ptr %16, align 4, !tbaa !4
  %173 = load ptr, ptr %4, align 8, !tbaa !8
  %174 = getelementptr inbounds nuw %struct.progress, ptr %173, i32 0, i32 10
  %175 = load i32, ptr %174, align 8, !tbaa !39
  %176 = sub nsw i32 %172, %175
  %177 = sub nsw i32 %176, 1
  br label %179

178:                                              ; preds = %164
  br label %179

179:                                              ; preds = %178, %171
  %180 = phi i32 [ %177, %171 ], [ 0, %178 ]
  %181 = sext i32 %180 to i64
  store i64 %181, ptr %14, align 8, !tbaa !11
  %182 = load ptr, ptr @stderr, align 8, !tbaa !37
  %183 = load ptr, ptr %4, align 8, !tbaa !8
  %184 = getelementptr inbounds nuw %struct.progress, ptr %183, i32 0, i32 1
  %185 = load ptr, ptr %184, align 8, !tbaa !42
  %186 = load i64, ptr %14, align 8, !tbaa !11
  %187 = trunc i64 %186 to i32
  %188 = load ptr, ptr %8, align 8, !tbaa !29
  %189 = getelementptr inbounds nuw %struct.strbuf, ptr %188, i32 0, i32 2
  %190 = load ptr, ptr %189, align 8, !tbaa !41
  %191 = load ptr, ptr %13, align 8, !tbaa !31
  %192 = call i32 (ptr, ptr, ...) @fprintf(ptr noundef %182, ptr noundef @.str.11, ptr noundef %185, i32 noundef %187, ptr noundef @.str.6, ptr noundef %190, ptr noundef %191) #9
  %193 = load ptr, ptr %4, align 8, !tbaa !8
  %194 = getelementptr inbounds nuw %struct.progress, ptr %193, i32 0, i32 11
  store i32 1, ptr %194, align 4, !tbaa !40
  br label %207

195:                                              ; preds = %159, %156
  %196 = load ptr, ptr @stderr, align 8, !tbaa !37
  %197 = load ptr, ptr %4, align 8, !tbaa !8
  %198 = getelementptr inbounds nuw %struct.progress, ptr %197, i32 0, i32 1
  %199 = load ptr, ptr %198, align 8, !tbaa !42
  %200 = load ptr, ptr %8, align 8, !tbaa !29
  %201 = getelementptr inbounds nuw %struct.strbuf, ptr %200, i32 0, i32 2
  %202 = load ptr, ptr %201, align 8, !tbaa !41
  %203 = load i64, ptr %14, align 8, !tbaa !11
  %204 = trunc i64 %203 to i32
  %205 = load ptr, ptr %13, align 8, !tbaa !31
  %206 = call i32 (ptr, ptr, ...) @fprintf(ptr noundef %196, ptr noundef @.str.12, ptr noundef %199, ptr noundef %202, i32 noundef %204, ptr noundef %205) #9
  br label %207

207:                                              ; preds = %195, %179
  br label %208

208:                                              ; preds = %207, %147
  %209 = load ptr, ptr @stderr, align 8, !tbaa !37
  %210 = call i32 @fflush(ptr noundef %209)
  call void @llvm.lifetime.end.p0(i64 4, ptr %16) #9
  call void @llvm.lifetime.end.p0(i64 8, ptr %15) #9
  call void @llvm.lifetime.end.p0(i64 8, ptr %14) #9
  call void @llvm.lifetime.end.p0(i64 8, ptr %13) #9
  br label %211

211:                                              ; preds = %208, %105
  store volatile i32 0, ptr @progress_update, align 4, !tbaa !4
  br label %212

212:                                              ; preds = %211, %97
  store i32 0, ptr %11, align 4
  br label %213

213:                                              ; preds = %212, %36
  call void @llvm.lifetime.end.p0(i64 4, ptr %10) #9
  call void @llvm.lifetime.end.p0(i64 4, ptr %9) #9
  call void @llvm.lifetime.end.p0(i64 8, ptr %8) #9
  call void @llvm.lifetime.end.p0(i64 8, ptr %7) #9
  %214 = load i32, ptr %11, align 4
  switch i32 %214, label %216 [
    i32 0, label %215
    i32 1, label %215
  ]

215:                                              ; preds = %213, %213
  ret void

216:                                              ; preds = %213
  unreachable
}