; Function Attrs: nounwind uwtable
define internal fastcc void @display(ptr noundef nonnull %0, i64 noundef %1, ptr noundef %2) unnamed_addr #1 {
  %4 = getelementptr inbounds nuw i8, ptr %0, i64 64
  %5 = getelementptr inbounds nuw i8, ptr %0, i64 72
  %6 = load i64, ptr %5, align 8, !tbaa !25
  %7 = getelementptr inbounds nuw i8, ptr %0, i64 36
  %8 = load i32, ptr %7, align 4, !tbaa !29
  %.not = icmp eq i32 %8, 0
  br i1 %.not, label %13, label %9

9:                                                ; preds = %3
  %10 = load volatile i32, ptr @progress_update, align 4, !tbaa !4
  %.not60 = icmp eq i32 %10, 0
  br i1 %.not60, label %101, label %11

11:                                               ; preds = %9
  %12 = add i32 %8, -1
  store i32 %12, ptr %7, align 4, !tbaa !29
  %.not61 = icmp eq i32 %12, 0
  br i1 %.not61, label %13, label %101

13:                                               ; preds = %11, %3
  %14 = getelementptr inbounds nuw i8, ptr %0, i64 16
  store i64 %1, ptr %14, align 8, !tbaa !28
  %15 = getelementptr inbounds nuw i8, ptr %0, i64 48
  %16 = load ptr, ptr %15, align 8, !tbaa !8
  %.not62 = icmp eq ptr %16, null
  br i1 %.not62, label %20, label %17

17:                                               ; preds = %13
  %18 = getelementptr inbounds nuw i8, ptr %16, i64 120
  %19 = load ptr, ptr %18, align 8, !tbaa !30
  br label %20

20:                                               ; preds = %13, %17
  %21 = phi ptr [ %19, %17 ], [ @.str.6, %13 ]
  %22 = getelementptr inbounds nuw i8, ptr %0, i64 24
  %23 = load i64, ptr %22, align 8, !tbaa !31
  %.not63 = icmp eq i64 %23, 0
  br i1 %.not63, label %37, label %24

24:                                               ; preds = %20
  %25 = mul i64 %1, 100
  %26 = udiv i64 %25, %23
  %27 = trunc i64 %26 to i32
  %28 = getelementptr inbounds nuw i8, ptr %0, i64 32
  %29 = load i32, ptr %28, align 8, !tbaa !32
  %.not65 = icmp eq i32 %29, %27
  br i1 %.not65, label %30, label %32

30:                                               ; preds = %24
  %31 = load volatile i32, ptr @progress_update, align 4, !tbaa !4
  %.not66 = icmp eq i32 %31, 0
  br i1 %.not66, label %101, label %32

32:                                               ; preds = %30, %24
  store i32 %27, ptr %28, align 8, !tbaa !32
  store i64 0, ptr %5, align 8, !tbaa !25
  %33 = getelementptr inbounds nuw i8, ptr %0, i64 80
  %34 = load ptr, ptr %33, align 8, !tbaa !26
  %.not9.i = icmp eq ptr %34, @strbuf_slopbuf
  br i1 %.not9.i, label %strbuf_setlen.exit, label %35

35:                                               ; preds = %32
  store i8 0, ptr %34, align 1, !tbaa !27
  %.pre = load i64, ptr %22, align 8, !tbaa !31
  br label %strbuf_setlen.exit

strbuf_setlen.exit:                               ; preds = %32, %35
  %36 = phi i64 [ %23, %32 ], [ %.pre, %35 ]
  tail call void (ptr, ptr, ...) @strbuf_addf(ptr noundef nonnull %4, ptr noundef nonnull @.str.7, i32 noundef %27, i64 noundef %1, i64 noundef %36, ptr noundef %21) #12
  br label %.critedge

37:                                               ; preds = %20
  %38 = load volatile i32, ptr @progress_update, align 4, !tbaa !4
  %.not64 = icmp eq i32 %38, 0
  br i1 %.not64, label %101, label %39

39:                                               ; preds = %37
  store i64 0, ptr %5, align 8, !tbaa !25
  %40 = getelementptr inbounds nuw i8, ptr %0, i64 80
  %41 = load ptr, ptr %40, align 8, !tbaa !26
  %.not9.i72 = icmp eq ptr %41, @strbuf_slopbuf
  br i1 %.not9.i72, label %strbuf_setlen.exit73, label %42

42:                                               ; preds = %39
  store i8 0, ptr %41, align 1, !tbaa !27
  br label %strbuf_setlen.exit73

strbuf_setlen.exit73:                             ; preds = %39, %42
  tail call void (ptr, ptr, ...) @strbuf_addf(ptr noundef nonnull %4, ptr noundef nonnull @.str.8, i64 noundef %1, ptr noundef %21) #12
  br label %.critedge

.critedge:                                        ; preds = %strbuf_setlen.exit, %strbuf_setlen.exit73
  %43 = load ptr, ptr @stderr, align 8, !tbaa !33
  %44 = tail call i32 @fileno(ptr noundef %43) #12
  %45 = tail call i32 @tcgetpgrp(i32 noundef %44) #12
  %46 = icmp slt i32 %45, 0
  br i1 %46, label %is_foreground_fd.exit.thread, label %is_foreground_fd.exit

is_foreground_fd.exit.thread:                     ; preds = %.critedge
  %47 = icmp ne ptr %2, null
  br label %51

is_foreground_fd.exit:                            ; preds = %.critedge
  %48 = tail call i32 @getpgid(i32 noundef 0) #12
  %49 = icmp eq i32 %45, %48
  %50 = icmp ne ptr %2, null
  %or.cond = or i1 %50, %49
  br i1 %or.cond, label %51, label %100

51:                                               ; preds = %is_foreground_fd.exit.thread, %is_foreground_fd.exit
  %52 = phi i1 [ %47, %is_foreground_fd.exit.thread ], [ %50, %is_foreground_fd.exit ]
  %53 = select i1 %52, ptr %2, ptr @.str.9
  %54 = load i64, ptr %5, align 8, !tbaa !25
  %sext = shl i64 %6, 32
  %55 = ashr exact i64 %sext, 32
  %56 = icmp ult i64 %54, %55
  %57 = sub i64 %6, %54
  %58 = trunc i64 %57 to i32
  %59 = add i32 %58, 1
  %60 = select i1 %56, i32 %59, i32 0
  %61 = getelementptr inbounds nuw i8, ptr %0, i64 88
  %62 = load i32, ptr %61, align 8, !tbaa !35
  %63 = tail call i32 @term_columns() #12
  %64 = getelementptr inbounds nuw i8, ptr %0, i64 92
  %65 = load i32, ptr %64, align 4, !tbaa !36
  %.not68 = icmp eq i32 %65, 0
  br i1 %.not68, label %71, label %66

66:                                               ; preds = %51
  %67 = load ptr, ptr @stderr, align 8, !tbaa !33
  %68 = getelementptr inbounds nuw i8, ptr %0, i64 80
  %69 = load ptr, ptr %68, align 8, !tbaa !26
  %70 = tail call i32 (ptr, ptr, ...) @fprintf(ptr noundef %67, ptr noundef nonnull @.str.10, ptr noundef %69, i32 noundef %60, ptr noundef nonnull %53) #13
  br label %97

71:                                               ; preds = %51
  %72 = sext i32 %62 to i64
  %73 = add i64 %54, 2
  %74 = add i64 %73, %72
  %75 = sext i32 %63 to i64
  %76 = icmp ule i64 %74, %75
  %or.cond71.not = select i1 %52, i1 true, i1 %76
  br i1 %or.cond71.not, label %90, label %77

77:                                               ; preds = %71
  %78 = load i32, ptr %61, align 8, !tbaa !35
  %79 = add nsw i32 %78, 1
  %80 = icmp slt i32 %79, %63
  %81 = xor i32 %78, -1
  %82 = add i32 %63, %81
  %83 = select i1 %80, i32 %82, i32 0
  %84 = load ptr, ptr @stderr, align 8, !tbaa !33
  %85 = getelementptr inbounds nuw i8, ptr %0, i64 8
  %86 = load ptr, ptr %85, align 8, !tbaa !37
  %87 = getelementptr inbounds nuw i8, ptr %0, i64 80
  %88 = load ptr, ptr %87, align 8, !tbaa !26
  %89 = tail call i32 (ptr, ptr, ...) @fprintf(ptr noundef %84, ptr noundef nonnull @.str.11, ptr noundef %86, i32 noundef %83, ptr noundef nonnull @.str.6, ptr noundef %88, ptr noundef nonnull %53) #13
  store i32 1, ptr %64, align 4, !tbaa !36
  br label %97

90:                                               ; preds = %71
  %91 = load ptr, ptr @stderr, align 8, !tbaa !33
  %92 = getelementptr inbounds nuw i8, ptr %0, i64 8
  %93 = load ptr, ptr %92, align 8, !tbaa !37
  %94 = getelementptr inbounds nuw i8, ptr %0, i64 80
  %95 = load ptr, ptr %94, align 8, !tbaa !26
  %96 = tail call i32 (ptr, ptr, ...) @fprintf(ptr noundef %91, ptr noundef nonnull @.str.12, ptr noundef %93, ptr noundef %95, i32 noundef %60, ptr noundef nonnull %53) #13
  br label %97

97:                                               ; preds = %77, %90, %66
  %98 = load ptr, ptr @stderr, align 8, !tbaa !33
  %99 = tail call i32 @fflush(ptr noundef %98)
  br label %100

100:                                              ; preds = %is_foreground_fd.exit, %97
  store volatile i32 0, ptr @progress_update, align 4, !tbaa !4
  br label %101

101:                                              ; preds = %100, %30, %37, %9, %11
  ret void
}